target datalayout = "e-m:e-p270:32:32-p271:32:32-p272:64:64-i64:64-i128:128-f80:128-n8:16:32:64-S128"
target triple = "x86_64-pc-linux-gnu"

%"class.llvm::SmallVectorBase" = type { ptr, i32, i32 }
%"struct.llvm::Align" = type { i8 }
%"class.llvm::StackLifetime::LiveRange" = type { %"class.llvm::BitVector" }
%"class.llvm::BitVector" = type <{ %"class.llvm::SmallVector.13", i32, [4 x i8] }>
%"class.llvm::SmallVector.13" = type { %"class.llvm::SmallVectorImpl.14", %"struct.llvm::SmallVectorStorage.17" }
%"class.llvm::SmallVectorImpl.14" = type { %"class.llvm::SmallVectorTemplateBase.15" }
%"class.llvm::SmallVectorTemplateBase.15" = type { %"class.llvm::SmallVectorTemplateCommon.16" }
%"class.llvm::SmallVectorTemplateCommon.16" = type { %"class.llvm::SmallVectorBase" }
%"struct.llvm::SmallVectorStorage.17" = type { [48 x i8] }
%"struct.llvm::safestack::StackLayout::StackObject" = type { ptr, i32, %"struct.llvm::Align", [3 x i8], %"class.llvm::StackLifetime::LiveRange" }
%"struct.__gnu_cxx::__ops::_Iter_comp_iter" = type { i8 }

; Function Attrs: mustprogress nounwind uwtable
define linkonce_odr hidden noundef ptr @_ZNSt11__copy_moveILb1ELb0ESt26random_access_iterator_tagE8__copy_mIPN4llvm9safestack11StackLayout11StackObjectES7_EET0_T_S9_S8_(ptr noundef %0, ptr noundef %1, ptr noundef %2) #1 comdat align 2 {
  %4 = alloca ptr, align 8
  %5 = alloca ptr, align 8
  %6 = alloca ptr, align 8
  %7 = alloca i64, align 8
  store ptr %0, ptr %4, align 8
  store ptr %1, ptr %5, align 8
  store ptr %2, ptr %6, align 8
  %8 = load ptr, ptr %5, align 8
  %9 = load ptr, ptr %4, align 8
  %10 = ptrtoint ptr %8 to i64
  %11 = ptrtoint ptr %9 to i64
  %12 = sub i64 %10, %11
  %13 = sdiv exact i64 %12, 88
  store i64 %13, ptr %7, align 8
  br label %14

14:                                               ; preds = %25, %3
  %15 = load i64, ptr %7, align 8
  %16 = icmp sgt i64 %15, 0
  br i1 %16, label %17, label %28

17:                                               ; preds = %14
  %18 = load ptr, ptr %4, align 8
  %19 = load ptr, ptr %6, align 8
  %20 = call noundef nonnull align 8 dereferenceable(88) ptr @_ZN4llvm9safestack11StackLayout11StackObjectaSEOS2_(ptr noundef nonnull align 8 dereferenceable(88) %19, ptr noundef nonnull align 8 dereferenceable(88) %18)
  %21 = load ptr, ptr %4, align 8
  %22 = getelementptr inbounds %"struct.llvm::safestack::StackLayout::StackObject", ptr %21, i32 1
  store ptr %22, ptr %4, align 8
  %23 = load ptr, ptr %6, align 8
  %24 = getelementptr inbounds %"struct.llvm::safestack::StackLayout::StackObject", ptr %23, i32 1
  store ptr %24, ptr %6, align 8
  br label %25

25:                                               ; preds = %17
  %26 = load i64, ptr %7, align 8
  %27 = add nsw i64 %26, -1
  store i64 %27, ptr %7, align 8
  br label %14, !llvm.loop !40

28:                                               ; preds = %14
  %29 = load ptr, ptr %6, align 8
  ret ptr %29
}

; Function Attrs: mustprogress nounwind uwtable
define linkonce_odr noundef ptr @_ZSt14__copy_move_a2ILb1EPN4llvm9safestack11StackLayout11StackObjectES4_ET1_T0_S6_S5_(ptr noundef %0, ptr noundef %1, ptr noundef %2) #1 comdat {
  %4 = alloca ptr, align 8
  %5 = alloca ptr, align 8
  %6 = alloca ptr, align 8
  store ptr %0, ptr %4, align 8
  store ptr %1, ptr %5, align 8
  store ptr %2, ptr %6, align 8
  %7 = load ptr, ptr %4, align 8
  %8 = load ptr, ptr %5, align 8
  %9 = load ptr, ptr %6, align 8
  %10 = call noundef ptr @_ZNSt11__copy_moveILb1ELb0ESt26random_access_iterator_tagE8__copy_mIPN4llvm9safestack11StackLayout11StackObjectES7_EET0_T_S9_S8_(ptr noundef %7, ptr noundef %8, ptr noundef %9)
  ret ptr %10
}

; Function Attrs: mustprogress nounwind uwtable
define linkonce_odr hidden noundef nonnull align 8 dereferenceable(64) ptr @_ZN4llvm11SmallVectorImLj6EEaSEOS1_(ptr noundef nonnull align 8 dereferenceable(64) %0, ptr noundef nonnull align 8 dereferenceable(64) %1) #1 comdat align 2 {
  %3 = alloca ptr, align 8
  %4 = alloca ptr, align 8
  store ptr %0, ptr %3, align 8
  store ptr %1, ptr %4, align 8
  %5 = load ptr, ptr %3, align 8
  %6 = load ptr, ptr %4, align 8
  %7 = call noundef nonnull align 8 dereferenceable(16) ptr @_ZN4llvm15SmallVectorImplImEaSEOS1_(ptr noundef nonnull align 8 dereferenceable(16) %5, ptr noundef nonnull align 8 dereferenceable(16) %6)
  ret ptr %5
}

; Function Attrs: mustprogress nounwind uwtable
define linkonce_odr noundef ptr @_ZSt12__niter_wrapIPN4llvm9safestack11StackLayout11StackObjectEET_RKS5_S5_(ptr noundef nonnull align 8 dereferenceable(8) %0, ptr noundef %1) #1 comdat {
  %3 = alloca ptr, align 8
  %4 = alloca ptr, align 8
  store ptr %0, ptr %3, align 8
  store ptr %1, ptr %4, align 8
  %5 = load ptr, ptr %4, align 8
  ret ptr %5
}

; Function Attrs: mustprogress nounwind uwtable
define linkonce_odr noundef ptr @_ZSt14__copy_move_a1ILb1EPN4llvm9safestack11StackLayout11StackObjectES4_ET1_T0_S6_S5_(ptr noundef %0, ptr noundef %1, ptr noundef %2) #1 comdat {
  %4 = alloca ptr, align 8
  %5 = alloca ptr, align 8
  %6 = alloca ptr, align 8
  store ptr %0, ptr %4, align 8
  store ptr %1, ptr %5, align 8
  store ptr %2, ptr %6, align 8
  %7 = load ptr, ptr %4, align 8
  %8 = load ptr, ptr %5, align 8
  %9 = load ptr, ptr %6, align 8
  %10 = call noundef ptr @_ZSt14__copy_move_a2ILb1EPN4llvm9safestack11StackLayout11StackObjectES4_ET1_T0_S6_S5_(ptr noundef %7, ptr noundef %8, ptr noundef %9)
  ret ptr %10
}

; Function Attrs: mustprogress nounwind uwtable
define linkonce_odr noundef ptr @_ZSt12__niter_baseIPN4llvm9safestack11StackLayout11StackObjectEET_S5_(ptr noundef %0) #1 comdat {
  %2 = alloca ptr, align 8
  store ptr %0, ptr %2, align 8
  %3 = load ptr, ptr %2, align 8
  ret ptr %3
}

; Function Attrs: mustprogress nounwind uwtable
define linkonce_odr hidden noundef nonnull align 8 dereferenceable(68) ptr @_ZN4llvm9BitVectoraSEOS0_(ptr noundef nonnull align 8 dereferenceable(68) %0, ptr noundef nonnull align 8 dereferenceable(68) %1) #1 comdat align 2 {
  %3 = alloca ptr, align 8
  %4 = alloca ptr, align 8
  store ptr %0, ptr %3, align 8
  store ptr %1, ptr %4, align 8
  %5 = load ptr, ptr %3, align 8
  %6 = getelementptr inbounds nuw %"class.llvm::BitVector", ptr %5, i32 0, i32 0
  %7 = load ptr, ptr %4, align 8
  %8 = getelementptr inbounds nuw %"class.llvm::BitVector", ptr %7, i32 0, i32 0
  %9 = call noundef nonnull align 8 dereferenceable(64) ptr @_ZN4llvm11SmallVectorImLj6EEaSEOS1_(ptr noundef nonnull align 8 dereferenceable(64) %6, ptr noundef nonnull align 8 dereferenceable(64) %8)
  %10 = load ptr, ptr %4, align 8
  %11 = getelementptr inbounds nuw %"class.llvm::BitVector", ptr %10, i32 0, i32 1
  %12 = load i32, ptr %11, align 8
  %13 = getelementptr inbounds nuw %"class.llvm::BitVector", ptr %5, i32 0, i32 1
  store i32 %12, ptr %13, align 8
  ret ptr %5
}

; Function Attrs: mustprogress nounwind uwtable
define linkonce_odr noundef ptr @_ZSt13__copy_move_aILb1EPN4llvm9safestack11StackLayout11StackObjectES4_ET1_T0_S6_S5_(ptr noundef %0, ptr noundef %1, ptr noundef %2) #1 comdat {
  %4 = alloca ptr, align 8
  %5 = alloca ptr, align 8
  %6 = alloca ptr, align 8
  store ptr %0, ptr %4, align 8
  store ptr %1, ptr %5, align 8
  store ptr %2, ptr %6, align 8
  %7 = load ptr, ptr %4, align 8
  %8 = call noundef ptr @_ZSt12__niter_baseIPN4llvm9safestack11StackLayout11StackObjectEET_S5_(ptr noundef %7) #2
  %9 = load ptr, ptr %5, align 8
  %10 = call noundef ptr @_ZSt12__niter_baseIPN4llvm9safestack11StackLayout11StackObjectEET_S5_(ptr noundef %9) #2
  %11 = load ptr, ptr %6, align 8
  %12 = call noundef ptr @_ZSt12__niter_baseIPN4llvm9safestack11StackLayout11StackObjectEET_S5_(ptr noundef %11) #2
  %13 = call noundef ptr @_ZSt14__copy_move_a1ILb1EPN4llvm9safestack11StackLayout11StackObjectES4_ET1_T0_S6_S5_(ptr noundef %8, ptr noundef %10, ptr noundef %12)
  %14 = call noundef ptr @_ZSt12__niter_wrapIPN4llvm9safestack11StackLayout11StackObjectEET_RKS5_S5_(ptr noundef nonnull align 8 dereferenceable(8) %6, ptr noundef %13)
  ret ptr %14
}

; Function Attrs: mustprogress nounwind uwtable
define linkonce_odr noundef ptr @_ZSt12__miter_baseIPN4llvm9safestack11StackLayout11StackObjectEET_S5_(ptr noundef %0) #1 comdat {
  %2 = alloca ptr, align 8
  store ptr %0, ptr %2, align 8
  %3 = load ptr, ptr %2, align 8
  ret ptr %3
}

; Function Attrs: mustprogress nounwind uwtable
define linkonce_odr hidden noundef nonnull align 8 dereferenceable(72) ptr @_ZN4llvm13StackLifetime9LiveRangeaSEOS1_(ptr noundef nonnull align 8 dereferenceable(72) %0, ptr noundef nonnull align 8 dereferenceable(72) %1) #1 comdat align 2 {
  %3 = alloca ptr, align 8
  %4 = alloca ptr, align 8
  store ptr %0, ptr %3, align 8
  store ptr %1, ptr %4, align 8
  %5 = load ptr, ptr %3, align 8
  %6 = getelementptr inbounds nuw %"class.llvm::StackLifetime::LiveRange", ptr %5, i32 0, i32 0
  %7 = load ptr, ptr %4, align 8
  %8 = getelementptr inbounds nuw %"class.llvm::StackLifetime::LiveRange", ptr %7, i32 0, i32 0
  %9 = call noundef nonnull align 8 dereferenceable(68) ptr @_ZN4llvm9BitVectoraSEOS0_(ptr noundef nonnull align 8 dereferenceable(68) %6, ptr noundef nonnull align 8 dereferenceable(68) %8)
  ret ptr %5
}

; Function Attrs: mustprogress nounwind uwtable
define internal noundef zeroext i1 @"_ZZN4llvm9safestack11StackLayout13computeLayoutEvENK3$_0clERKNS1_11StackObjectES5_"(ptr noundef nonnull align 1 dereferenceable(1) %0, ptr noundef nonnull align 8 dereferenceable(88) %1, ptr noundef nonnull align 8 dereferenceable(88) %2) #1 align 2 {
  %4 = alloca ptr, align 8
  %5 = alloca ptr, align 8
  %6 = alloca ptr, align 8
  store ptr %0, ptr %4, align 8
  store ptr %1, ptr %5, align 8
  store ptr %2, ptr %6, align 8
  %7 = load ptr, ptr %5, align 8
  %8 = getelementptr inbounds nuw %"struct.llvm::safestack::StackLayout::StackObject", ptr %7, i32 0, i32 1
  %9 = load i32, ptr %8, align 8
  %10 = load ptr, ptr %6, align 8
  %11 = getelementptr inbounds nuw %"struct.llvm::safestack::StackLayout::StackObject", ptr %10, i32 0, i32 1
  %12 = load i32, ptr %11, align 8
  %13 = icmp ugt i32 %9, %12
  ret i1 %13
}

; Function Attrs: mustprogress nounwind uwtable
define linkonce_odr noundef ptr @_ZSt4moveIPN4llvm9safestack11StackLayout11StackObjectES4_ET0_T_S6_S5_(ptr noundef %0, ptr noundef %1, ptr noundef %2) #1 comdat {
  %4 = alloca ptr, align 8
  %5 = alloca ptr, align 8
  %6 = alloca ptr, align 8
  store ptr %0, ptr %4, align 8
  store ptr %1, ptr %5, align 8
  store ptr %2, ptr %6, align 8
  %7 = load ptr, ptr %4, align 8
  %8 = call noundef ptr @_ZSt12__miter_baseIPN4llvm9safestack11StackLayout11StackObjectEET_S5_(ptr noundef %7)
  %9 = load ptr, ptr %5, align 8
  %10 = call noundef ptr @_ZSt12__miter_baseIPN4llvm9safestack11StackLayout11StackObjectEET_S5_(ptr noundef %9)
  %11 = load ptr, ptr %6, align 8
  %12 = call noundef ptr @_ZSt13__copy_move_aILb1EPN4llvm9safestack11StackLayout11StackObjectES4_ET1_T0_S6_S5_(ptr noundef %8, ptr noundef %10, ptr noundef %11)
  ret ptr %12
}

; Function Attrs: mustprogress nounwind uwtable
define linkonce_odr hidden noundef nonnull align 8 dereferenceable(88) ptr @_ZN4llvm9safestack11StackLayout11StackObjectaSEOS2_(ptr noundef nonnull align 8 dereferenceable(88) %0, ptr noundef nonnull align 8 dereferenceable(88) %1) #1 comdat align 2 {
  %3 = alloca ptr, align 8
  %4 = alloca ptr, align 8
  store ptr %0, ptr %3, align 8
  store ptr %1, ptr %4, align 8
  %5 = load ptr, ptr %3, align 8
  %6 = getelementptr inbounds nuw %"struct.llvm::safestack::StackLayout::StackObject", ptr %5, i32 0, i32 0
  %7 = load ptr, ptr %4, align 8
  %8 = getelementptr inbounds nuw %"struct.llvm::safestack::StackLayout::StackObject", ptr %7, i32 0, i32 0
  call void @llvm.memcpy.p0.p0.i64(ptr align 8 %6, ptr align 8 %8, i64 13, i1 false)
  %9 = getelementptr inbounds nuw %"struct.llvm::safestack::StackLayout::StackObject", ptr %5, i32 0, i32 4
  %10 = load ptr, ptr %4, align 8
  %11 = getelementptr inbounds nuw %"struct.llvm::safestack::StackLayout::StackObject", ptr %10, i32 0, i32 4
  %12 = call noundef nonnull align 8 dereferenceable(72) ptr @_ZN4llvm13StackLifetime9LiveRangeaSEOS1_(ptr noundef nonnull align 8 dereferenceable(72) %9, ptr noundef nonnull align 8 dereferenceable(72) %11)
  ret ptr %5
}

; Function Attrs: mustprogress nounwind uwtable
define internal noundef zeroext i1 @"_ZN9__gnu_cxx5__ops15_Iter_comp_iterIZN4llvm9safestack11StackLayout13computeLayoutEvE3$_0EclIPNS4_11StackObjectES9_EEbT_T0_"(ptr noundef nonnull align 1 dereferenceable(1) %0, ptr noundef %1, ptr noundef %2) #1 align 2 {
  %4 = alloca ptr, align 8
  %5 = alloca ptr, align 8
  %6 = alloca ptr, align 8
  store ptr %0, ptr %4, align 8
  store ptr %1, ptr %5, align 8
  store ptr %2, ptr %6, align 8
  %7 = load ptr, ptr %4, align 8
  %8 = load ptr, ptr %5, align 8
  %9 = load ptr, ptr %6, align 8
  %10 = call noundef zeroext i1 @"_ZZN4llvm9safestack11StackLayout13computeLayoutEvENK3$_0clERKNS1_11StackObjectES5_"(ptr noundef nonnull align 1 dereferenceable(1) %7, ptr noundef nonnull align 8 dereferenceable(88) %8, ptr noundef nonnull align 8 dereferenceable(88) %9)
  ret i1 %10
}

; Function Attrs: mustprogress nounwind uwtable
define internal noundef ptr @"_ZSt12__move_mergeIPN4llvm9safestack11StackLayout11StackObjectES4_N9__gnu_cxx5__ops15_Iter_comp_iterIZNS2_13computeLayoutEvE3$_0EEET0_T_SB_SB_SB_SA_T1_"(ptr noundef %0, ptr noundef %1, ptr noundef %2, ptr noundef %3, ptr noundef %4) #1 {
  %6 = alloca %"struct.__gnu_cxx::__ops::_Iter_comp_iter", align 1
  %7 = alloca ptr, align 8
  %8 = alloca ptr, align 8
  %9 = alloca ptr, align 8
  %10 = alloca ptr, align 8
  %11 = alloca ptr, align 8
  store ptr %0, ptr %7, align 8
  store ptr %1, ptr %8, align 8
  store ptr %2, ptr %9, align 8
  store ptr %3, ptr %10, align 8
  store ptr %4, ptr %11, align 8
  br label %12

12:                                               ; preds = %38, %5
  %13 = load ptr, ptr %7, align 8
  %14 = load ptr, ptr %8, align 8
  %15 = icmp ne ptr %13, %14
  br i1 %15, label %16, label %20

16:                                               ; preds = %12
  %17 = load ptr, ptr %9, align 8
  %18 = load ptr, ptr %10, align 8
  %19 = icmp ne ptr %17, %18
  br label %20

20:                                               ; preds = %16, %12
  %21 = phi i1 [ false, %12 ], [ %19, %16 ]
  br i1 %21, label %22, label %41

22:                                               ; preds = %20
  %23 = load ptr, ptr %9, align 8
  %24 = load ptr, ptr %7, align 8
  %25 = call noundef zeroext i1 @"_ZN9__gnu_cxx5__ops15_Iter_comp_iterIZN4llvm9safestack11StackLayout13computeLayoutEvE3$_0EclIPNS4_11StackObjectES9_EEbT_T0_"(ptr noundef nonnull align 1 dereferenceable(1) %6, ptr noundef %23, ptr noundef %24)
  br i1 %25, label %26, label %32

26:                                               ; preds = %22
  %27 = load ptr, ptr %9, align 8
  %28 = load ptr, ptr %11, align 8
  %29 = call noundef nonnull align 8 dereferenceable(88) ptr @_ZN4llvm9safestack11StackLayout11StackObjectaSEOS2_(ptr noundef nonnull align 8 dereferenceable(88) %28, ptr noundef nonnull align 8 dereferenceable(88) %27)
  %30 = load ptr, ptr %9, align 8
  %31 = getelementptr inbounds %"struct.llvm::safestack::StackLayout::StackObject", ptr %30, i32 1
  store ptr %31, ptr %9, align 8
  br label %38

32:                                               ; preds = %22
  %33 = load ptr, ptr %7, align 8
  %34 = load ptr, ptr %11, align 8
  %35 = call noundef nonnull align 8 dereferenceable(88) ptr @_ZN4llvm9safestack11StackLayout11StackObjectaSEOS2_(ptr noundef nonnull align 8 dereferenceable(88) %34, ptr noundef nonnull align 8 dereferenceable(88) %33)
  %36 = load ptr, ptr %7, align 8
  %37 = getelementptr inbounds %"struct.llvm::safestack::StackLayout::StackObject", ptr %36, i32 1
  store ptr %37, ptr %7, align 8
  br label %38

38:                                               ; preds = %32, %26
  %39 = load ptr, ptr %11, align 8
  %40 = getelementptr inbounds %"struct.llvm::safestack::StackLayout::StackObject", ptr %39, i32 1
  store ptr %40, ptr %11, align 8
  br label %12, !llvm.loop !39

41:                                               ; preds = %20
  %42 = load ptr, ptr %9, align 8
  %43 = load ptr, ptr %10, align 8
  %44 = load ptr, ptr %7, align 8
  %45 = load ptr, ptr %8, align 8
  %46 = load ptr, ptr %11, align 8
  %47 = call noundef ptr @_ZSt4moveIPN4llvm9safestack11StackLayout11StackObjectES4_ET0_T_S6_S5_(ptr noundef %44, ptr noundef %45, ptr noundef %46)
  %48 = call noundef ptr @_ZSt4moveIPN4llvm9safestack11StackLayout11StackObjectES4_ET0_T_S6_S5_(ptr noundef %42, ptr noundef %43, ptr noundef %47)
  ret ptr %48
}