; Function Attrs: mustprogress nounwind uwtable
define internal fastcc void @"_ZSt12__move_mergeIPN4llvm9safestack11StackLayout11StackObjectES4_N9__gnu_cxx5__ops15_Iter_comp_iterIZNS2_13computeLayoutEvE3$_0EEET0_T_SB_SB_SB_SA_T1_"(ptr noundef %0, ptr noundef %1, ptr noundef %2, ptr noundef %3, ptr noundef %4) unnamed_addr #0 {
  %6 = icmp ne ptr %0, %1
  %7 = icmp ne ptr %2, %3
  %8 = and i1 %6, %7
  br i1 %8, label %.lr.ph, label %._crit_edge

.lr.ph:                                           ; preds = %5, %21
  %.031 = phi ptr [ %23, %21 ], [ %4, %5 ]
  %.01830 = phi ptr [ %.1, %21 ], [ %0, %5 ]
  %.01929 = phi ptr [ %.120, %21 ], [ %2, %5 ]
  %9 = getelementptr i8, ptr %.01929, i64 8
  %.019.val = load i32, ptr %9, align 8
  %10 = getelementptr i8, ptr %.01830, i64 8
  %.018.val = load i32, ptr %10, align 8
  %11 = icmp ugt i32 %.019.val, %.018.val
  %12 = getelementptr inbounds nuw i8, ptr %.031, i64 16
  br i1 %11, label %13, label %17

13:                                               ; preds = %.lr.ph
  tail call void @llvm.memcpy.p0.p0.i64(ptr noundef nonnull align 8 dereferenceable(13) %.031, ptr noundef nonnull align 8 dereferenceable(13) %.01929, i64 13, i1 false)
  %14 = getelementptr inbounds nuw i8, ptr %.01929, i64 16
  %15 = tail call noundef nonnull align 8 dereferenceable(16) ptr @_ZN4llvm15SmallVectorImplImEaSEOS1_(ptr noundef nonnull align 8 dereferenceable(16) %12, ptr noundef nonnull align 8 dereferenceable(16) %14)
  %16 = getelementptr inbounds i8, ptr %.01929, i64 88
  br label %21

17:                                               ; preds = %.lr.ph
  tail call void @llvm.memcpy.p0.p0.i64(ptr noundef nonnull align 8 dereferenceable(13) %.031, ptr noundef nonnull align 8 dereferenceable(13) %.01830, i64 13, i1 false)
  %18 = getelementptr inbounds nuw i8, ptr %.01830, i64 16
  %19 = tail call noundef nonnull align 8 dereferenceable(16) ptr @_ZN4llvm15SmallVectorImplImEaSEOS1_(ptr noundef nonnull align 8 dereferenceable(16) %12, ptr noundef nonnull align 8 dereferenceable(16) %18)
  %20 = getelementptr inbounds i8, ptr %.01830, i64 88
  br label %21

21:                                               ; preds = %17, %13
  %.01929.pn = phi ptr [ %.01929, %13 ], [ %.01830, %17 ]
  %.120 = phi ptr [ %16, %13 ], [ %.01929, %17 ]
  %.1 = phi ptr [ %.01830, %13 ], [ %20, %17 ]
  %.sink.in = getelementptr inbounds i8, ptr %.01929.pn, i64 80
  %.sink = load i32, ptr %.sink.in, align 8
  %22 = getelementptr inbounds i8, ptr %.031, i64 80
  store i32 %.sink, ptr %22, align 8
  %23 = getelementptr inbounds i8, ptr %.031, i64 88
  %24 = icmp ne ptr %.1, %1
  %25 = icmp ne ptr %.120, %3
  %26 = select i1 %24, i1 %25, i1 false
  br i1 %26, label %.lr.ph, label %._crit_edge, !llvm.loop !37

._crit_edge:                                      ; preds = %21, %5
  %.019.lcssa = phi ptr [ %2, %5 ], [ %.120, %21 ]
  %.018.lcssa = phi ptr [ %0, %5 ], [ %.1, %21 ]
  %.0.lcssa = phi ptr [ %4, %5 ], [ %23, %21 ]
  %27 = ptrtoint ptr %1 to i64
  %28 = ptrtoint ptr %.018.lcssa to i64
  %29 = sub i64 %27, %28
  %30 = icmp sgt i64 %29, 0
  br i1 %30, label %.lr.ph.preheader.i.i.i.i.i, label %_ZSt4moveIPN4llvm9safestack11StackLayout11StackObjectES4_ET0_T_S6_S5_.exit

.lr.ph.preheader.i.i.i.i.i:                       ; preds = %._crit_edge
  %31 = udiv exact i64 %29, 88
  br label %.lr.ph.i.i.i.i.i

.lr.ph.i.i.i.i.i:                                 ; preds = %.lr.ph.i.i.i.i.i, %.lr.ph.preheader.i.i.i.i.i
  %.012.i.i.i.i.i = phi i64 [ %40, %.lr.ph.i.i.i.i.i ], [ %31, %.lr.ph.preheader.i.i.i.i.i ]
  %.0811.i.i.i.i.i = phi ptr [ %39, %.lr.ph.i.i.i.i.i ], [ %.0.lcssa, %.lr.ph.preheader.i.i.i.i.i ]
  %.0910.i.i.i.i.i = phi ptr [ %38, %.lr.ph.i.i.i.i.i ], [ %.018.lcssa, %.lr.ph.preheader.i.i.i.i.i ]
  tail call void @llvm.memcpy.p0.p0.i64(ptr noundef nonnull align 8 dereferenceable(13) %.0811.i.i.i.i.i, ptr noundef nonnull align 8 dereferenceable(13) %.0910.i.i.i.i.i, i64 13, i1 false)
  %32 = getelementptr inbounds nuw i8, ptr %.0811.i.i.i.i.i, i64 16
  %33 = getelementptr inbounds nuw i8, ptr %.0910.i.i.i.i.i, i64 16
  %34 = tail call noundef nonnull align 8 dereferenceable(16) ptr @_ZN4llvm15SmallVectorImplImEaSEOS1_(ptr noundef nonnull align 8 dereferenceable(16) %32, ptr noundef nonnull align 8 dereferenceable(16) %33)
  %35 = getelementptr inbounds i8, ptr %.0910.i.i.i.i.i, i64 80
  %36 = load i32, ptr %35, align 8
  %37 = getelementptr inbounds i8, ptr %.0811.i.i.i.i.i, i64 80
  store i32 %36, ptr %37, align 8
  %38 = getelementptr inbounds i8, ptr %.0910.i.i.i.i.i, i64 88
  %39 = getelementptr inbounds i8, ptr %.0811.i.i.i.i.i, i64 88
  %40 = add nsw i64 %.012.i.i.i.i.i, -1
  %41 = icmp ugt i64 %.012.i.i.i.i.i, 1
  br i1 %41, label %.lr.ph.i.i.i.i.i, label %_ZSt4moveIPN4llvm9safestack11StackLayout11StackObjectES4_ET0_T_S6_S5_.exit, !llvm.loop !38

_ZSt4moveIPN4llvm9safestack11StackLayout11StackObjectES4_ET0_T_S6_S5_.exit: ; preds = %.lr.ph.i.i.i.i.i, %._crit_edge
  %.08.lcssa.i.i.i.i.i = phi ptr [ %.0.lcssa, %._crit_edge ], [ %39, %.lr.ph.i.i.i.i.i ]
  %42 = ptrtoint ptr %3 to i64
  %43 = ptrtoint ptr %.019.lcssa to i64
  %44 = sub i64 %42, %43
  %45 = icmp sgt i64 %44, 0
  br i1 %45, label %.lr.ph.preheader.i.i.i.i.i22, label %_ZSt4moveIPN4llvm9safestack11StackLayout11StackObjectES4_ET0_T_S6_S5_.exit27

.lr.ph.preheader.i.i.i.i.i22:                     ; preds = %_ZSt4moveIPN4llvm9safestack11StackLayout11StackObjectES4_ET0_T_S6_S5_.exit
  %46 = udiv exact i64 %44, 88
  br label %.lr.ph.i.i.i.i.i23

.lr.ph.i.i.i.i.i23:                               ; preds = %.lr.ph.i.i.i.i.i23, %.lr.ph.preheader.i.i.i.i.i22
  %.012.i.i.i.i.i24 = phi i64 [ %55, %.lr.ph.i.i.i.i.i23 ], [ %46, %.lr.ph.preheader.i.i.i.i.i22 ]
  %.0811.i.i.i.i.i25 = phi ptr [ %54, %.lr.ph.i.i.i.i.i23 ], [ %.08.lcssa.i.i.i.i.i, %.lr.ph.preheader.i.i.i.i.i22 ]
  %.0910.i.i.i.i.i26 = phi ptr [ %53, %.lr.ph.i.i.i.i.i23 ], [ %.019.lcssa, %.lr.ph.preheader.i.i.i.i.i22 ]
  tail call void @llvm.memcpy.p0.p0.i64(ptr noundef nonnull align 8 dereferenceable(13) %.0811.i.i.i.i.i25, ptr noundef nonnull align 8 dereferenceable(13) %.0910.i.i.i.i.i26, i64 13, i1 false)
  %47 = getelementptr inbounds nuw i8, ptr %.0811.i.i.i.i.i25, i64 16
  %48 = getelementptr inbounds nuw i8, ptr %.0910.i.i.i.i.i26, i64 16
  %49 = tail call noundef nonnull align 8 dereferenceable(16) ptr @_ZN4llvm15SmallVectorImplImEaSEOS1_(ptr noundef nonnull align 8 dereferenceable(16) %47, ptr noundef nonnull align 8 dereferenceable(16) %48)
  %50 = getelementptr inbounds i8, ptr %.0910.i.i.i.i.i26, i64 80
  %51 = load i32, ptr %50, align 8
  %52 = getelementptr inbounds i8, ptr %.0811.i.i.i.i.i25, i64 80
  store i32 %51, ptr %52, align 8
  %53 = getelementptr inbounds i8, ptr %.0910.i.i.i.i.i26, i64 88
  %54 = getelementptr inbounds i8, ptr %.0811.i.i.i.i.i25, i64 88
  %55 = add nsw i64 %.012.i.i.i.i.i24, -1
  %56 = icmp ugt i64 %.012.i.i.i.i.i24, 1
  br i1 %56, label %.lr.ph.i.i.i.i.i23, label %_ZSt4moveIPN4llvm9safestack11StackLayout11StackObjectES4_ET0_T_S6_S5_.exit27, !llvm.loop !38

_ZSt4moveIPN4llvm9safestack11StackLayout11StackObjectES4_ET0_T_S6_S5_.exit27: ; preds = %.lr.ph.i.i.i.i.i23, %_ZSt4moveIPN4llvm9safestack11StackLayout11StackObjectES4_ET0_T_S6_S5_.exit
  ret void
}